target datalayout = "e-m:e-p270:32:32-p271:32:32-p272:64:64-i64:64-i128:128-f80:128-n8:16:32:64-S128"
target triple = "x86_64-pc-linux-gnu"

%struct.gmx_ana_selparam_t = type { ptr, %struct.gmx_ana_selvalue_t, ptr, i32 }
%struct.gmx_ana_selvalue_t = type { i32, i32, %union.anon, i32 }
%union.anon = type { ptr }
%struct.methoddata_insolidangle = type { %struct.gmx_ana_pos_t, %struct.gmx_ana_pos_t, float, float, float, float, i32, float, ptr, i32, i32, ptr }
%struct.gmx_ana_pos_t = type <{ ptr, ptr, ptr, %struct.gmx_ana_indexmap_t, i32, [4 x i8] }>
%struct.gmx_ana_indexmap_t = type { i32, ptr, ptr, %struct.t_blocka, ptr, %struct.t_blocka, i8 }
%struct.t_blocka = type { i32, ptr, i32, ptr, i32, i32 }

; Function Attrs: inlinehint mustprogress uwtable
define linkonce_odr void @_ZN23methoddata_insolidangleC2Ev(ptr noundef nonnull align 8 dereferenceable(352) %0) unnamed_addr #4 comdat align 2 personality ptr @__gxx_personality_v0 {
  %2 = alloca ptr, align 8
  %3 = alloca ptr, align 8
  %4 = alloca i32, align 4
  store ptr %0, ptr %2, align 8, !tbaa !11
  %5 = load ptr, ptr %2, align 8
  %6 = getelementptr inbounds nuw %struct.methoddata_insolidangle, ptr %5, i32 0, i32 0
  call void @_ZN13gmx_ana_pos_tC1Ev(ptr noundef nonnull align 8 dereferenceable(148) %6)
  %7 = getelementptr inbounds nuw %struct.methoddata_insolidangle, ptr %5, i32 0, i32 1
  invoke void @_ZN13gmx_ana_pos_tC1Ev(ptr noundef nonnull align 8 dereferenceable(148) %7)
          to label %8 unwind label %9

8:                                                ; preds = %1
  ret void

9:                                                ; preds = %1
  %10 = landingpad { ptr, i32 }
          cleanup
  %11 = extractvalue { ptr, i32 } %10, 0
  store ptr %11, ptr %3, align 8
  %12 = extractvalue { ptr, i32 } %10, 1
  store i32 %12, ptr %4, align 4
  call void @_ZN13gmx_ana_pos_tD1Ev(ptr noundef nonnull align 8 dereferenceable(148) %6) #19
  br label %13

13:                                               ; preds = %9
  %14 = load ptr, ptr %3, align 8
  %15 = load i32, ptr %4, align 4
  %16 = insertvalue { ptr, i32 } poison, ptr %14, 0
  %17 = insertvalue { ptr, i32 } %16, i32 %15, 1
  resume { ptr, i32 } %17
}

; Function Attrs: mustprogress uwtable
define internal noundef ptr @_ZL22init_data_insolidangleiP18gmx_ana_selparam_t(i32 noundef %0, ptr noundef %1) #0 personality ptr @__gxx_personality_v0 {
  %3 = alloca i32, align 4
  %4 = alloca ptr, align 8
  %5 = alloca ptr, align 8
  %6 = alloca ptr, align 8
  %7 = alloca i32, align 4
  store i32 %0, ptr %3, align 4, !tbaa !4
  store ptr %1, ptr %4, align 8, !tbaa !8
  call void @llvm.lifetime.start.p0(i64 8, ptr %5) #19
  %8 = call noalias noundef nonnull ptr @_Znwm(i64 noundef 352) #20
  call void @llvm.memset.p0.i64(ptr align 16 %8, i8 0, i64 352, i1 false)
  invoke void @_ZN23methoddata_insolidangleC2Ev(ptr noundef nonnull align 8 dereferenceable(352) %8)
          to label %9 unwind label %49

9:                                                ; preds = %2
  store ptr %8, ptr %5, align 8, !tbaa !11
  %10 = load ptr, ptr %5, align 8, !tbaa !11
  %11 = getelementptr inbounds nuw %struct.methoddata_insolidangle, ptr %10, i32 0, i32 2
  store float 5.000000e+00, ptr %11, align 8, !tbaa !13
  %12 = load ptr, ptr %5, align 8, !tbaa !11
  %13 = getelementptr inbounds nuw %struct.methoddata_insolidangle, ptr %12, i32 0, i32 3
  store float 0.000000e+00, ptr %13, align 4, !tbaa !25
  %14 = load ptr, ptr %5, align 8, !tbaa !11
  %15 = getelementptr inbounds nuw %struct.methoddata_insolidangle, ptr %14, i32 0, i32 4
  store float 0.000000e+00, ptr %15, align 8, !tbaa !26
  %16 = load ptr, ptr %5, align 8, !tbaa !11
  %17 = getelementptr inbounds nuw %struct.methoddata_insolidangle, ptr %16, i32 0, i32 5
  store float 0.000000e+00, ptr %17, align 4, !tbaa !27
  %18 = load ptr, ptr %5, align 8, !tbaa !11
  %19 = getelementptr inbounds nuw %struct.methoddata_insolidangle, ptr %18, i32 0, i32 6
  store i32 0, ptr %19, align 8, !tbaa !28
  %20 = load ptr, ptr %5, align 8, !tbaa !11
  %21 = getelementptr inbounds nuw %struct.methoddata_insolidangle, ptr %20, i32 0, i32 7
  store float 0.000000e+00, ptr %21, align 4, !tbaa !29
  %22 = load ptr, ptr %5, align 8, !tbaa !11
  %23 = getelementptr inbounds nuw %struct.methoddata_insolidangle, ptr %22, i32 0, i32 8
  store ptr null, ptr %23, align 8, !tbaa !30
  %24 = load ptr, ptr %5, align 8, !tbaa !11
  %25 = getelementptr inbounds nuw %struct.methoddata_insolidangle, ptr %24, i32 0, i32 9
  store i32 0, ptr %25, align 8, !tbaa !31
  %26 = load ptr, ptr %5, align 8, !tbaa !11
  %27 = getelementptr inbounds nuw %struct.methoddata_insolidangle, ptr %26, i32 0, i32 10
  store i32 0, ptr %27, align 4, !tbaa !32
  %28 = load ptr, ptr %5, align 8, !tbaa !11
  %29 = getelementptr inbounds nuw %struct.methoddata_insolidangle, ptr %28, i32 0, i32 11
  store ptr null, ptr %29, align 8, !tbaa !33
  %30 = load ptr, ptr %5, align 8, !tbaa !11
  %31 = getelementptr inbounds nuw %struct.methoddata_insolidangle, ptr %30, i32 0, i32 0
  %32 = load ptr, ptr %4, align 8, !tbaa !8
  %33 = getelementptr inbounds %struct.gmx_ana_selparam_t, ptr %32, i64 0
  %34 = getelementptr inbounds nuw %struct.gmx_ana_selparam_t, ptr %33, i32 0, i32 1
  %35 = getelementptr inbounds nuw %struct.gmx_ana_selvalue_t, ptr %34, i32 0, i32 2
  store ptr %31, ptr %35, align 8, !tbaa !34
  %36 = load ptr, ptr %5, align 8, !tbaa !11
  %37 = getelementptr inbounds nuw %struct.methoddata_insolidangle, ptr %36, i32 0, i32 1
  %38 = load ptr, ptr %4, align 8, !tbaa !8
  %39 = getelementptr inbounds %struct.gmx_ana_selparam_t, ptr %38, i64 1
  %40 = getelementptr inbounds nuw %struct.gmx_ana_selparam_t, ptr %39, i32 0, i32 1
  %41 = getelementptr inbounds nuw %struct.gmx_ana_selvalue_t, ptr %40, i32 0, i32 2
  store ptr %37, ptr %41, align 8, !tbaa !34
  %42 = load ptr, ptr %5, align 8, !tbaa !11
  %43 = getelementptr inbounds nuw %struct.methoddata_insolidangle, ptr %42, i32 0, i32 2
  %44 = load ptr, ptr %4, align 8, !tbaa !8
  %45 = getelementptr inbounds %struct.gmx_ana_selparam_t, ptr %44, i64 2
  %46 = getelementptr inbounds nuw %struct.gmx_ana_selparam_t, ptr %45, i32 0, i32 1
  %47 = getelementptr inbounds nuw %struct.gmx_ana_selvalue_t, ptr %46, i32 0, i32 2
  store ptr %43, ptr %47, align 8, !tbaa !34
  %48 = load ptr, ptr %5, align 8, !tbaa !11
  call void @llvm.lifetime.end.p0(i64 8, ptr %5) #19
  ret ptr %48

49:                                               ; preds = %2
  %50 = landingpad { ptr, i32 }
          cleanup
  %51 = extractvalue { ptr, i32 } %50, 0
  store ptr %51, ptr %6, align 8
  %52 = extractvalue { ptr, i32 } %50, 1
  store i32 %52, ptr %7, align 4
  call void @_ZdlPvm(ptr noundef %8, i64 noundef 352) #21
  call void @llvm.lifetime.end.p0(i64 8, ptr %5) #19
  br label %53

53:                                               ; preds = %49
  %54 = load ptr, ptr %6, align 8
  %55 = load i32, ptr %7, align 4
  %56 = insertvalue { ptr, i32 } poison, ptr %54, 0
  %57 = insertvalue { ptr, i32 } %56, i32 %55, 1
  resume { ptr, i32 } %57
}