; Function Attrs: mustprogress uwtable
define internal noundef nonnull ptr @_ZL22init_data_insolidangleiP18gmx_ana_selparam_t(i32 %0, ptr noundef writeonly captures(none) %1) #0 personality ptr @__gxx_personality_v0 {
  %3 = tail call noalias noundef nonnull dereferenceable(352) ptr @_Znwm(i64 noundef 352) #19
  tail call void @llvm.memset.p0.i64(ptr noundef nonnull align 16 dereferenceable(352) %3, i8 0, i64 352, i1 false)
  invoke void @_ZN13gmx_ana_pos_tC1Ev(ptr noundef nonnull align 8 dereferenceable(352) %3)
          to label %.noexc unwind label %12

.noexc:                                           ; preds = %2
  %4 = getelementptr inbounds nuw i8, ptr %3, i64 152
  invoke void @_ZN13gmx_ana_pos_tC1Ev(ptr noundef nonnull align 8 dereferenceable(148) %4)
          to label %_ZN23methoddata_insolidangleC2Ev.exit unwind label %5

5:                                                ; preds = %.noexc
  %6 = landingpad { ptr, i32 }
          cleanup
  tail call void @_ZN13gmx_ana_pos_tD1Ev(ptr noundef nonnull align 8 dereferenceable(352) %3) #20
  br label %.body

_ZN23methoddata_insolidangleC2Ev.exit:            ; preds = %.noexc
  %7 = getelementptr inbounds nuw i8, ptr %3, i64 304
  store float 5.000000e+00, ptr %7, align 8, !tbaa !4
  %8 = getelementptr inbounds nuw i8, ptr %3, i64 308
  %9 = getelementptr inbounds nuw i8, ptr %1, i64 16
  tail call void @llvm.memset.p0.i64(ptr noundef nonnull align 4 dereferenceable(44) %8, i8 0, i64 44, i1 false)
  store ptr %3, ptr %9, align 8, !tbaa !20
  %10 = getelementptr inbounds nuw i8, ptr %1, i64 64
  store ptr %4, ptr %10, align 8, !tbaa !20
  %11 = getelementptr inbounds nuw i8, ptr %1, i64 112
  store ptr %7, ptr %11, align 8, !tbaa !20
  ret ptr %3

12:                                               ; preds = %2
  %13 = landingpad { ptr, i32 }
          cleanup
  br label %.body

.body:                                            ; preds = %5, %12
  %eh.lpad-body = phi { ptr, i32 } [ %13, %12 ], [ %6, %5 ]
  tail call void @_ZdlPvm(ptr noundef nonnull %3, i64 noundef 352) #21
  resume { ptr, i32 } %eh.lpad-body
}